; Function Attrs: mustprogress uwtable
define void @_ZN3net26SpdyFrameWithHeaderBlockIRC2EjNS_15SpdyHeaderBlockE(ptr noundef nonnull align 8 dereferenceable(104) initializes((0, 13)) %0, i32 noundef %1, ptr noundef nonnull %2) unnamed_addr #0 align 2 personality ptr @__gxx_personality_v0 {
  %4 = getelementptr inbounds nuw i8, ptr %0, i64 8
  store i32 %1, ptr %4, align 8, !tbaa !13
  %5 = getelementptr inbounds nuw i8, ptr %0, i64 12
  store i8 0, ptr %5, align 4, !tbaa !17
  store ptr getelementptr inbounds nuw inrange(-16, 24) (i8, ptr @_ZTVN3net26SpdyFrameWithHeaderBlockIRE, i64 16), ptr %0, align 8, !tbaa !20
  %6 = getelementptr inbounds nuw i8, ptr %0, i64 16
  tail call void @_ZN3net15SpdyHeaderBlockC1EOS0_(ptr noundef nonnull align 8 dereferenceable(88) %6, ptr noundef nonnull align 8 dereferenceable(88) %2)
  ret void
}